; Function Attrs: nounwind uwtable
define void @Txs_ManCollectJustPis(ptr noundef readonly captures(none) %0, ptr noundef readonly captures(none) %1, ptr noundef captures(none) initializes((4, 8)) %2) local_unnamed_addr #0 {
  %4 = getelementptr inbounds nuw i8, ptr %2, i64 4
  store i32 0, ptr %4, align 4, !tbaa !12
  %5 = getelementptr i8, ptr %0, i64 32
  %6 = getelementptr i8, ptr %1, i64 4
  %.val22 = load i32, ptr %6, align 4, !tbaa !12
  %7 = icmp sgt i32 %.val22, 0
  br i1 %7, label %.lr.ph, label %.critedge

.lr.ph:                                           ; preds = %3
  %8 = getelementptr i8, ptr %1, i64 8
  %9 = getelementptr i8, ptr %0, i64 16
  %10 = getelementptr i8, ptr %0, i64 64
  %.phi.trans.insert.i = getelementptr inbounds nuw i8, ptr %2, i64 8
  br label %11

11:                                               ; preds = %.lr.ph, %Gia_ObjIsPi.exit.thread
  %.val26 = phi i32 [ %.val22, %.lr.ph ], [ %.val, %Gia_ObjIsPi.exit.thread ]
  %indvars.iv = phi i64 [ 0, %.lr.ph ], [ %indvars.iv.next, %Gia_ObjIsPi.exit.thread ]
  %.val17 = load ptr, ptr %5, align 8, !tbaa !29
  %.not = icmp eq ptr %.val17, null
  br i1 %.not, label %.critedge, label %12

12:                                               ; preds = %11
  %.val16 = load ptr, ptr %8, align 8, !tbaa !17
  %13 = getelementptr inbounds nuw i32, ptr %.val16, i64 %indvars.iv
  %14 = load i32, ptr %13, align 4, !tbaa !46
  %15 = sext i32 %14 to i64
  %16 = getelementptr inbounds %struct.Gia_Obj_t_, ptr %.val17, i64 %15
  %17 = load i64, ptr %16, align 4
  %18 = and i64 %17, 4611686021111742463
  %or.cond = icmp eq i64 %18, 4611686021111742463
  br i1 %or.cond, label %Gia_ObjIsPi.exit, label %Gia_ObjIsPi.exit.thread

Gia_ObjIsPi.exit:                                 ; preds = %12
  %19 = lshr i64 %17, 32
  %20 = trunc nuw i64 %19 to i32
  %21 = and i32 %20, 536870911
  %.val4.i = load i32, ptr %9, align 8, !tbaa !49
  %.val5.i = load ptr, ptr %10, align 8, !tbaa !50
  %22 = getelementptr i8, ptr %.val5.i, i64 4
  %.val5.val.i = load i32, ptr %22, align 4, !tbaa !12
  %23 = sub nsw i32 %.val5.val.i, %.val4.i
  %.not21 = icmp slt i32 %21, %23
  br i1 %.not21, label %24, label %Gia_ObjIsPi.exit.thread

24:                                               ; preds = %Gia_ObjIsPi.exit
  %25 = and i64 %17, 1073741824
  %.not15 = icmp eq i64 %25, 0
  %26 = zext i1 %.not15 to i32
  %sh.diff = lshr i64 %17, 31
  %tr.sh.diff = trunc i64 %sh.diff to i32
  %27 = and i32 %tr.sh.diff, 1073741822
  %28 = or disjoint i32 %27, %26
  %29 = load i32, ptr %4, align 4, !tbaa !12
  %30 = load i32, ptr %2, align 8, !tbaa !16
  %31 = icmp eq i32 %29, %30
  br i1 %31, label %32, label %.Vec_IntGrow.exit10_crit_edge.i

.Vec_IntGrow.exit10_crit_edge.i:                  ; preds = %24
  %.pre.i = load ptr, ptr %.phi.trans.insert.i, align 8, !tbaa !17
  br label %Vec_IntPush.exit

32:                                               ; preds = %24
  %33 = icmp slt i32 %29, 16
  br i1 %33, label %34, label %41

34:                                               ; preds = %32
  %35 = load ptr, ptr %.phi.trans.insert.i, align 8, !tbaa !17
  %.not9.i.i = icmp eq ptr %35, null
  br i1 %.not9.i.i, label %38, label %36

36:                                               ; preds = %34
  %37 = tail call dereferenceable_or_null(64) ptr @realloc(ptr noundef nonnull %35, i64 noundef 64) #16
  br label %Vec_IntGrow.exit.i

38:                                               ; preds = %34
  %39 = tail call noalias dereferenceable_or_null(64) ptr @malloc(i64 noundef 64) #15
  br label %Vec_IntGrow.exit.i

Vec_IntGrow.exit.i:                               ; preds = %38, %36
  %40 = phi ptr [ %37, %36 ], [ %39, %38 ]
  store ptr %40, ptr %.phi.trans.insert.i, align 8, !tbaa !17
  store i32 16, ptr %2, align 8, !tbaa !16
  br label %Vec_IntPush.exit

41:                                               ; preds = %32
  %42 = shl nuw nsw i32 %29, 1
  %43 = load ptr, ptr %.phi.trans.insert.i, align 8, !tbaa !17
  %.not9.i9.i = icmp eq ptr %43, null
  %44 = zext nneg i32 %42 to i64
  %45 = shl nuw nsw i64 %44, 2
  br i1 %.not9.i9.i, label %48, label %46

46:                                               ; preds = %41
  %47 = tail call ptr @realloc(ptr noundef nonnull %43, i64 noundef %45) #16
  br label %50

48:                                               ; preds = %41
  %49 = tail call noalias ptr @malloc(i64 noundef %45) #15
  br label %50

50:                                               ; preds = %48, %46
  %51 = phi ptr [ %47, %46 ], [ %49, %48 ]
  store ptr %51, ptr %.phi.trans.insert.i, align 8, !tbaa !17
  store i32 %42, ptr %2, align 8, !tbaa !16
  br label %Vec_IntPush.exit

Vec_IntPush.exit:                                 ; preds = %.Vec_IntGrow.exit10_crit_edge.i, %Vec_IntGrow.exit.i, %50
  %52 = phi ptr [ %.pre.i, %.Vec_IntGrow.exit10_crit_edge.i ], [ %51, %50 ], [ %40, %Vec_IntGrow.exit.i ]
  %53 = load i32, ptr %4, align 4, !tbaa !12
  %54 = add nsw i32 %53, 1
  store i32 %54, ptr %4, align 4, !tbaa !12
  %55 = sext i32 %53 to i64
  %56 = getelementptr inbounds i32, ptr %52, i64 %55
  store i32 %28, ptr %56, align 4, !tbaa !46
  %.val.pre = load i32, ptr %6, align 4, !tbaa !12
  br label %Gia_ObjIsPi.exit.thread

Gia_ObjIsPi.exit.thread:                          ; preds = %12, %Gia_ObjIsPi.exit, %Vec_IntPush.exit
  %.val = phi i32 [ %.val26, %12 ], [ %.val26, %Gia_ObjIsPi.exit ], [ %.val.pre, %Vec_IntPush.exit ]
  %indvars.iv.next = add nuw nsw i64 %indvars.iv, 1
  %57 = sext i32 %.val to i64
  %58 = icmp slt i64 %indvars.iv.next, %57
  br i1 %58, label %11, label %.critedge, !llvm.loop !59

.critedge:                                        ; preds = %11, %Gia_ObjIsPi.exit.thread, %3
  ret void
}